; Function Attrs: mustprogress uwtable
define hidden void @_Z21CustomLoggingFunctionPKc(ptr noundef %0) #2 personality ptr @__gxx_personality_v0 {
  %2 = tail call noundef i64 @strlen(ptr noundef nonnull dereferenceable(1) %0) #12
  %3 = load i64, ptr getelementptr inbounds nuw (i8, ptr @_ZL8g_outputB5cxx11, i64 8), align 8, !tbaa !4
  %4 = sub i64 4611686018427387903, %3
  %5 = icmp ult i64 %4, %2
  br i1 %5, label %6, label %_ZNSt7__cxx1112basic_stringIcSt11char_traitsIcESaIcEEpLEPKc.exit

6:                                                ; preds = %1
  tail call void @_ZSt20__throw_length_errorPKc(ptr noundef nonnull @.str) #13
  unreachable

_ZNSt7__cxx1112basic_stringIcSt11char_traitsIcESaIcEEpLEPKc.exit: ; preds = %1
  %7 = tail call noundef nonnull align 8 dereferenceable(32) ptr @_ZNSt7__cxx1112basic_stringIcSt11char_traitsIcESaIcEE9_M_appendEPKcm(ptr noundef nonnull align 8 dereferenceable(32) @_ZL8g_outputB5cxx11, ptr noundef nonnull %0, i64 noundef %2)
  ret void
}